; Function Attrs: nounwind uwtable
define ptr @l___private_Lean_Meta_ExprLens_0__Lean_Meta_lensCoord___rarg___lambda__4(ptr noundef %0, ptr noundef %1, ptr noundef %2) #0 {
  tail call void @lean_inc_heartbeat() #5
  %4 = tail call noalias ptr @mi_malloc_small(i64 noundef 72) #5
  %5 = icmp eq ptr %4, null
  br i1 %5, label %6, label %lean_alloc_closure.exit

6:                                                ; preds = %3
  tail call void @lean_internal_panic_out_of_memory() #6
  unreachable

lean_alloc_closure.exit:                          ; preds = %3
  %7 = getelementptr inbounds nuw i8, ptr %4, i64 4
  store i32 1, ptr %4, align 4, !tbaa !4
  store i32 -184549304, ptr %7, align 4
  %8 = getelementptr inbounds nuw i8, ptr %4, i64 8
  store ptr @l_Lean_Meta_mkLambdaFVars___boxed, ptr %8, align 8, !tbaa !9
  %9 = getelementptr inbounds nuw i8, ptr %4, i64 16
  store i16 11, ptr %9, align 8, !tbaa !11
  %10 = getelementptr inbounds nuw i8, ptr %4, i64 18
  store i16 6, ptr %10, align 2, !tbaa !11
  %11 = getelementptr inbounds nuw i8, ptr %4, i64 24
  store ptr %0, ptr %11, align 8, !tbaa !9
  %12 = getelementptr inbounds nuw i8, ptr %4, i64 32
  store ptr %2, ptr %12, align 8, !tbaa !9
  %13 = getelementptr inbounds nuw i8, ptr %4, i64 40
  store ptr inttoptr (i64 1 to ptr), ptr %13, align 8, !tbaa !9
  %14 = getelementptr inbounds nuw i8, ptr %4, i64 48
  store ptr inttoptr (i64 3 to ptr), ptr %14, align 8, !tbaa !9
  %15 = getelementptr inbounds nuw i8, ptr %4, i64 56
  store ptr inttoptr (i64 1 to ptr), ptr %15, align 8, !tbaa !9
  %16 = getelementptr inbounds nuw i8, ptr %4, i64 64
  store ptr inttoptr (i64 3 to ptr), ptr %16, align 8, !tbaa !9
  %17 = tail call ptr @lean_apply_2(ptr noundef %1, ptr noundef nonnull inttoptr (i64 1 to ptr), ptr noundef nonnull %4) #5
  ret ptr %17
}